target datalayout = "e-m:e-p270:32:32-p271:32:32-p272:64:64-i64:64-i128:128-f80:128-n8:16:32:64-S128"
target triple = "x86_64-pc-linux-gnu"

%struct._object = type { %union.anon, ptr }
%union.anon = type { i64 }

@_Py_NoneStruct = external global %struct._object, align 8
@.str.124 = private unnamed_addr constant [5 x i8] c"eses\00", align 1
@.str.125 = private unnamed_addr constant [5 x i8] c"idna\00", align 1
@PyExc_AssertionError = external global ptr, align 8
@.str.126 = private unnamed_addr constant [27 x i8] c"Arguments are not cleared.\00", align 1

; Function Attrs: nounwind uwtable
define internal ptr @gh_99240_clear_args(ptr noundef %0, ptr noundef %1) #0 {
  %3 = alloca ptr, align 8
  %4 = alloca ptr, align 8
  %5 = alloca ptr, align 8
  %6 = alloca ptr, align 8
  %7 = alloca ptr, align 8
  %8 = alloca i32, align 4
  store ptr %0, ptr %4, align 8, !tbaa !3
  store ptr %1, ptr %5, align 8, !tbaa !3
  call void @llvm.lifetime.start.p0(i64 8, ptr %6) #9
  store ptr null, ptr %6, align 8, !tbaa !17
  call void @llvm.lifetime.start.p0(i64 8, ptr %7) #9
  store ptr null, ptr %7, align 8, !tbaa !17
  %9 = load ptr, ptr %5, align 8, !tbaa !3
  %10 = call i32 (ptr, ptr, ...) @PyArg_ParseTuple(ptr noundef %9, ptr noundef @.str.124, ptr noundef @.str.125, ptr noundef %6, ptr noundef @.str.125, ptr noundef %7)
  %11 = icmp ne i32 %10, 0
  br i1 %11, label %21, label %12

12:                                               ; preds = %2
  %13 = load ptr, ptr %6, align 8, !tbaa !17
  %14 = icmp ne ptr %13, null
  br i1 %14, label %18, label %15

15:                                               ; preds = %12
  %16 = load ptr, ptr %7, align 8, !tbaa !17
  %17 = icmp ne ptr %16, null
  br i1 %17, label %18, label %20

18:                                               ; preds = %15, %12
  call void @PyErr_Clear()
  %19 = load ptr, ptr @PyExc_AssertionError, align 8, !tbaa !3
  call void @PyErr_SetString(ptr noundef %19, ptr noundef @.str.126)
  br label %20

20:                                               ; preds = %18, %15
  store ptr null, ptr %3, align 8
  store i32 1, ptr %8, align 4
  br label %24

21:                                               ; preds = %2
  %22 = load ptr, ptr %6, align 8, !tbaa !17
  call void @PyMem_Free(ptr noundef %22)
  %23 = load ptr, ptr %7, align 8, !tbaa !17
  call void @PyMem_Free(ptr noundef %23)
  store ptr @_Py_NoneStruct, ptr %3, align 8
  store i32 1, ptr %8, align 4
  br label %24

24:                                               ; preds = %21, %20
  call void @llvm.lifetime.end.p0(i64 8, ptr %7) #9
  call void @llvm.lifetime.end.p0(i64 8, ptr %6) #9
  %25 = load ptr, ptr %3, align 8
  ret ptr %25
}