; Function Attrs: nounwind uwtable
define internal noundef ptr @gh_99240_clear_args(ptr readnone captures(none) %0, ptr noundef %1) #0 {
  %3 = alloca ptr, align 8
  %4 = alloca ptr, align 8
  call void @llvm.lifetime.start.p0(i64 8, ptr nonnull %3) #7
  store ptr null, ptr %3, align 8, !tbaa !17
  call void @llvm.lifetime.start.p0(i64 8, ptr nonnull %4) #7
  store ptr null, ptr %4, align 8, !tbaa !17
  %5 = call i32 (ptr, ptr, ...) @PyArg_ParseTuple(ptr noundef %1, ptr noundef nonnull @.str.124, ptr noundef nonnull @.str.125, ptr noundef nonnull %3, ptr noundef nonnull @.str.125, ptr noundef nonnull %4) #7
  %.not = icmp eq i32 %5, 0
  %6 = load ptr, ptr %3, align 8, !tbaa !17
  br i1 %.not, label %7, label %13

7:                                                ; preds = %2
  %8 = icmp ne ptr %6, null
  %9 = load ptr, ptr %4, align 8
  %10 = icmp ne ptr %9, null
  %or.cond = select i1 %8, i1 true, i1 %10
  br i1 %or.cond, label %11, label %15

11:                                               ; preds = %7
  call void @PyErr_Clear() #7
  %12 = load ptr, ptr @PyExc_AssertionError, align 8, !tbaa !12
  call void @PyErr_SetString(ptr noundef %12, ptr noundef nonnull @.str.126) #7
  br label %15

13:                                               ; preds = %2
  call void @PyMem_Free(ptr noundef %6) #7
  %14 = load ptr, ptr %4, align 8, !tbaa !17
  call void @PyMem_Free(ptr noundef %14) #7
  br label %15

15:                                               ; preds = %11, %7, %13
  %.0 = phi ptr [ @_Py_NoneStruct, %13 ], [ null, %7 ], [ null, %11 ]
  call void @llvm.lifetime.end.p0(i64 8, ptr nonnull %4) #7
  call void @llvm.lifetime.end.p0(i64 8, ptr nonnull %3) #7
  ret ptr %.0
}